; Function Attrs: nounwind sspstrong uwtable
define hidden i64 @rb_io_buffer_type_allocate(i64 noundef %0) #0 {
  %2 = tail call i64 @rb_data_typed_object_zalloc(i64 noundef %0, i64 noundef 32, ptr noundef nonnull @rb_io_buffer_type) #25
  %3 = inttoptr i64 %2 to ptr
  %4 = getelementptr inbounds nuw i8, ptr %3, i64 24
  %5 = load i64, ptr %4, align 8, !tbaa !17
  %6 = and i64 %5, 2
  %.not.i = icmp eq i64 %6, 0
  %7 = getelementptr i8, ptr %3, i64 32
  br i1 %.not.i, label %8, label %RTYPEDDATA_GET_DATA.exit

8:                                                ; preds = %1
  %9 = load ptr, ptr %7, align 8, !tbaa !21
  br label %RTYPEDDATA_GET_DATA.exit

RTYPEDDATA_GET_DATA.exit:                         ; preds = %1, %8
  %10 = phi ptr [ %9, %8 ], [ %7, %1 ]
  %11 = getelementptr inbounds nuw i8, ptr %10, i64 24
  tail call void @llvm.memset.p0.i64(ptr noundef nonnull align 8 dereferenceable(16) %10, i8 0, i64 16, i1 false)
  store i64 4, ptr %11, align 8, !tbaa !7
  ret i64 %2
}